; Function Attrs: nounwind uwtable
define ptr @lv_roller_get_options(ptr noundef %0) local_unnamed_addr #0 {
  %.not = icmp eq ptr %0, null
  br i1 %.not, label %.preheader, label %2

.preheader:                                       ; preds = %1, %.preheader
  br label %.preheader

2:                                                ; preds = %1
  %3 = tail call ptr @lv_obj_get_child(ptr noundef nonnull %0, i32 noundef 0) #6
  %4 = tail call ptr @lv_label_get_text(ptr noundef %3) #6
  ret ptr %4
}